target datalayout = "e-m:e-p270:32:32-p271:32:32-p272:64:64-i64:64-i128:128-f80:128-n8:16:32:64-S128"
target triple = "x86_64-pc-linux-gnu"

%struct.gmac_data_st = type { ptr, ptr, %struct.PROV_CIPHER }
%struct.PROV_CIPHER = type { ptr, ptr, ptr }

@.str = private unnamed_addr constant [54 x i8] c"../openssl/providers/implementations/macs/gmac_prov.c\00", align 1

; Function Attrs: nounwind uwtable
define internal void @gmac_free(ptr noundef %0) #0 {
  %2 = alloca ptr, align 8
  %3 = alloca ptr, align 8
  store ptr %0, ptr %2, align 8, !tbaa !3
  call void @llvm.lifetime.start.p0(i64 8, ptr %3) #6
  %4 = load ptr, ptr %2, align 8, !tbaa !3
  store ptr %4, ptr %3, align 8, !tbaa !7
  %5 = load ptr, ptr %3, align 8, !tbaa !7
  %6 = icmp ne ptr %5, null
  br i1 %6, label %7, label %14

7:                                                ; preds = %1
  %8 = load ptr, ptr %3, align 8, !tbaa !7
  %9 = getelementptr inbounds nuw %struct.gmac_data_st, ptr %8, i32 0, i32 1
  %10 = load ptr, ptr %9, align 8, !tbaa !9
  call void @EVP_CIPHER_CTX_free(ptr noundef %10)
  %11 = load ptr, ptr %3, align 8, !tbaa !7
  %12 = getelementptr inbounds nuw %struct.gmac_data_st, ptr %11, i32 0, i32 2
  call void @ossl_prov_cipher_reset(ptr noundef %12)
  %13 = load ptr, ptr %3, align 8, !tbaa !7
  call void @CRYPTO_free(ptr noundef %13, ptr noundef @.str, i32 noundef 54)
  br label %14

14:                                               ; preds = %7, %1
  call void @llvm.lifetime.end.p0(i64 8, ptr %3) #6
  ret void
}