; Function Attrs: nounwind uwtable
define internal void @gmac_free(ptr noundef %0) #0 {
  %.not = icmp eq ptr %0, null
  br i1 %.not, label %6, label %2

2:                                                ; preds = %1
  %3 = getelementptr inbounds nuw i8, ptr %0, i64 8
  %4 = load ptr, ptr %3, align 8, !tbaa !3
  tail call void @EVP_CIPHER_CTX_free(ptr noundef %4) #5
  %5 = getelementptr inbounds nuw i8, ptr %0, i64 16
  tail call void @ossl_prov_cipher_reset(ptr noundef nonnull %5) #5
  tail call void @CRYPTO_free(ptr noundef nonnull %0, ptr noundef nonnull @.str, i32 noundef 54) #5
  br label %6

6:                                                ; preds = %2, %1
  ret void
}